; Function Attrs: mustprogress nofree norecurse nosync nounwind sspstrong willreturn memory(argmem: readwrite) uwtable
define internal void @vfio_pci_compute_needs_reset(ptr noundef captures(none) %0) #18 {
  %2 = getelementptr inbounds nuw i8, ptr %0, i64 97
  %3 = load i8, ptr %2, align 1, !range !6, !noundef !7
  %4 = trunc nuw i8 %3 to i1
  br i1 %4, label %5, label %13

5:                                                ; preds = %1
  %6 = getelementptr inbounds nuw i8, ptr %0, i64 1000
  %7 = load i8, ptr %6, align 8, !range !6, !noundef !7
  %8 = trunc nuw i8 %7 to i1
  br i1 %8, label %15, label %9

9:                                                ; preds = %5
  %10 = getelementptr inbounds nuw i8, ptr %0, i64 1001
  %11 = load i8, ptr %10, align 1, !range !6, !noundef !7
  %12 = trunc nuw i8 %11 to i1
  br i1 %12, label %13, label %15

13:                                               ; preds = %9, %1
  %14 = getelementptr inbounds nuw i8, ptr %0, i64 98
  store i8 1, ptr %14, align 2
  br label %15

15:                                               ; preds = %13, %9, %5
  ret void
}